target datalayout = "e-m:e-p270:32:32-p271:32:32-p272:64:64-i64:64-i128:128-f80:128-n8:16:32:64-S128"
target triple = "x86_64-pc-linux-gnu"

%"class.cv::Mat" = type { i32, i32, i32, i32, ptr, ptr, ptr, ptr, ptr, ptr, %"struct.cv::MatSize", %"struct.cv::MatStep" }
%"struct.cv::MatSize" = type { ptr }
%"struct.cv::MatStep" = type { ptr, [2 x i64] }
%"class.cv::Point_" = type { i32, i32 }
%struct.Data = type { %"class.cv::Mat", %"class.cv::Mat", %"class.cv::Mat" }

; Function Attrs: inlinehint mustprogress uwtable
define linkonce_odr hidden void @_ZN4DataC2ERKS_(ptr noundef nonnull align 8 dereferenceable(288) %0, ptr noundef nonnull align 8 dereferenceable(288) %1) unnamed_addr #6 comdat align 2 personality ptr @__gxx_personality_v0 {
  %3 = alloca ptr, align 8
  %4 = alloca ptr, align 8
  %5 = alloca ptr, align 8
  %6 = alloca i32, align 4
  store ptr %0, ptr %3, align 8, !tbaa !62
  store ptr %1, ptr %4, align 8, !tbaa !62
  %7 = load ptr, ptr %3, align 8
  %8 = getelementptr inbounds nuw %struct.Data, ptr %7, i32 0, i32 0
  %9 = load ptr, ptr %4, align 8, !tbaa !62
  %10 = getelementptr inbounds nuw %struct.Data, ptr %9, i32 0, i32 0
  call void @_ZN2cv3MatC1ERKS0_(ptr noundef nonnull align 8 dereferenceable(96) %8, ptr noundef nonnull align 8 dereferenceable(96) %10)
  %11 = getelementptr inbounds nuw %struct.Data, ptr %7, i32 0, i32 1
  %12 = load ptr, ptr %4, align 8, !tbaa !62
  %13 = getelementptr inbounds nuw %struct.Data, ptr %12, i32 0, i32 1
  invoke void @_ZN2cv3MatC1ERKS0_(ptr noundef nonnull align 8 dereferenceable(96) %11, ptr noundef nonnull align 8 dereferenceable(96) %13)
          to label %14 unwind label %19

14:                                               ; preds = %2
  %15 = getelementptr inbounds nuw %struct.Data, ptr %7, i32 0, i32 2
  %16 = load ptr, ptr %4, align 8, !tbaa !62
  %17 = getelementptr inbounds nuw %struct.Data, ptr %16, i32 0, i32 2
  invoke void @_ZN2cv3MatC1ERKS0_(ptr noundef nonnull align 8 dereferenceable(96) %15, ptr noundef nonnull align 8 dereferenceable(96) %17)
          to label %18 unwind label %23

18:                                               ; preds = %14
  ret void

19:                                               ; preds = %2
  %20 = landingpad { ptr, i32 }
          cleanup
  %21 = extractvalue { ptr, i32 } %20, 0
  store ptr %21, ptr %5, align 8
  %22 = extractvalue { ptr, i32 } %20, 1
  store i32 %22, ptr %6, align 4
  br label %27

23:                                               ; preds = %14
  %24 = landingpad { ptr, i32 }
          cleanup
  %25 = extractvalue { ptr, i32 } %24, 0
  store ptr %25, ptr %5, align 8
  %26 = extractvalue { ptr, i32 } %24, 1
  store i32 %26, ptr %6, align 4
  call void @_ZN2cv3MatD1Ev(ptr noundef nonnull align 8 dereferenceable(96) %11) #3
  br label %27

27:                                               ; preds = %23, %19
  call void @_ZN2cv3MatD1Ev(ptr noundef nonnull align 8 dereferenceable(96) %8) #3
  br label %28

28:                                               ; preds = %27
  %29 = load ptr, ptr %5, align 8
  %30 = load i32, ptr %6, align 4
  %31 = insertvalue { ptr, i32 } poison, ptr %29, 0
  %32 = insertvalue { ptr, i32 } %31, i32 %30, 1
  resume { ptr, i32 } %32
}

; Function Attrs: inlinehint mustprogress nounwind uwtable
define linkonce_odr hidden void @_ZN2cv6Point_IiEC2Ev(ptr noundef nonnull align 4 dereferenceable(8) %0) unnamed_addr #8 comdat align 2 {
  %2 = alloca ptr, align 8
  store ptr %0, ptr %2, align 8, !tbaa !30
  %3 = load ptr, ptr %2, align 8
  %4 = getelementptr inbounds nuw %"class.cv::Point_", ptr %3, i32 0, i32 0
  store i32 0, ptr %4, align 4, !tbaa !32
  %5 = getelementptr inbounds nuw %"class.cv::Point_", ptr %3, i32 0, i32 1
  store i32 0, ptr %5, align 4, !tbaa !34
  ret void
}

; Function Attrs: inlinehint mustprogress nounwind uwtable
define linkonce_odr hidden noundef nonnull align 4 dereferenceable(4) ptr @_ZN2cv3Mat2atIfEERT_ii(ptr noundef nonnull align 8 dereferenceable(96) %0, i32 noundef %1, i32 noundef %2) #8 comdat align 2 {
  %4 = alloca ptr, align 8
  %5 = alloca i32, align 4
  %6 = alloca i32, align 4
  store ptr %0, ptr %4, align 8, !tbaa !4
  store i32 %1, ptr %5, align 4, !tbaa !25
  store i32 %2, ptr %6, align 4, !tbaa !25
  %7 = load ptr, ptr %4, align 8
  %8 = getelementptr inbounds nuw %"class.cv::Mat", ptr %7, i32 0, i32 4
  %9 = load ptr, ptr %8, align 8, !tbaa !54
  %10 = getelementptr inbounds nuw %"class.cv::Mat", ptr %7, i32 0, i32 11
  %11 = getelementptr inbounds nuw %"struct.cv::MatStep", ptr %10, i32 0, i32 0
  %12 = load ptr, ptr %11, align 8, !tbaa !55
  %13 = getelementptr inbounds i64, ptr %12, i64 0
  %14 = load i64, ptr %13, align 8, !tbaa !56
  %15 = load i32, ptr %5, align 4, !tbaa !25
  %16 = sext i32 %15 to i64
  %17 = mul i64 %14, %16
  %18 = getelementptr inbounds nuw i8, ptr %9, i64 %17
  %19 = load i32, ptr %6, align 4, !tbaa !25
  %20 = sext i32 %19 to i64
  %21 = getelementptr inbounds float, ptr %18, i64 %20
  ret ptr %21
}

; Function Attrs: mustprogress uwtable
define hidden void @_Z24addPointRetrainAndRedrawR4Dataiii(ptr noundef nonnull align 8 dereferenceable(288) %0, i32 noundef %1, i32 noundef %2, i32 noundef %3) #4 personality ptr @__gxx_personality_v0 {
  %5 = alloca ptr, align 8
  %6 = alloca i32, align 4
  %7 = alloca i32, align 4
  %8 = alloca i32, align 4
  %9 = alloca %"class.cv::Mat", align 8
  %10 = alloca ptr, align 8
  %11 = alloca i32, align 4
  %12 = alloca float, align 4
  %13 = alloca %"class.cv::Mat", align 8
  %14 = alloca float, align 4
  %15 = alloca %"class.cv::Mat", align 8
  %16 = alloca %"class.cv::Mat", align 8
  %17 = alloca [2 x %"class.cv::Point_"], align 16
  %18 = alloca %struct.Data, align 8
  store ptr %0, ptr %5, align 8, !tbaa !62
  store i32 %1, ptr %6, align 4, !tbaa !25
  store i32 %2, ptr %7, align 4, !tbaa !25
  store i32 %3, ptr %8, align 4, !tbaa !25
  call void @llvm.lifetime.start.p0(i64 96, ptr %9) #3
  call void @_ZN2cv3MatC1Eiii(ptr noundef nonnull align 8 dereferenceable(96) %9, i32 noundef 1, i32 noundef 2, i32 noundef 5)
  %19 = load i32, ptr %6, align 4, !tbaa !25
  %20 = sitofp i32 %19 to float
  %21 = invoke noundef nonnull align 4 dereferenceable(4) ptr @_ZN2cv3Mat2atIfEERT_ii(ptr noundef nonnull align 8 dereferenceable(96) %9, i32 noundef 0, i32 noundef 0)
          to label %22 unwind label %69

22:                                               ; preds = %4
  store float %20, ptr %21, align 4, !tbaa !13
  %23 = load i32, ptr %7, align 4, !tbaa !25
  %24 = sitofp i32 %23 to float
  %25 = invoke noundef nonnull align 4 dereferenceable(4) ptr @_ZN2cv3Mat2atIfEERT_ii(ptr noundef nonnull align 8 dereferenceable(96) %9, i32 noundef 0, i32 noundef 1)
          to label %26 unwind label %69

26:                                               ; preds = %22
  store float %24, ptr %25, align 4, !tbaa !13
  %27 = load ptr, ptr %5, align 8, !tbaa !62
  %28 = getelementptr inbounds nuw %struct.Data, ptr %27, i32 0, i32 1
  invoke void @_ZN2cv3Mat9push_backERKS0_(ptr noundef nonnull align 8 dereferenceable(96) %28, ptr noundef nonnull align 8 dereferenceable(96) %9)
          to label %29 unwind label %69

29:                                               ; preds = %26
  %30 = load ptr, ptr %5, align 8, !tbaa !62
  %31 = getelementptr inbounds nuw %struct.Data, ptr %30, i32 0, i32 2
  call void @llvm.lifetime.start.p0(i64 4, ptr %12) #3
  %32 = load i32, ptr %8, align 4, !tbaa !25
  %33 = sitofp i32 %32 to float
  store float %33, ptr %12, align 4, !tbaa !13
  invoke void @_ZN2cv3Mat9push_backIfEEvRKT_(ptr noundef nonnull align 8 dereferenceable(96) %31, ptr noundef nonnull align 4 dereferenceable(4) %12)
          to label %34 unwind label %73

34:                                               ; preds = %29
  call void @llvm.lifetime.end.p0(i64 4, ptr %12) #3
  call void @llvm.lifetime.start.p0(i64 96, ptr %13) #3
  invoke void @_ZN2cv3MatC1Eiii(ptr noundef nonnull align 8 dereferenceable(96) %13, i32 noundef 1, i32 noundef 2, i32 noundef 5)
          to label %35 unwind label %77

35:                                               ; preds = %34
  call void @llvm.lifetime.start.p0(i64 4, ptr %14) #3
  store float 0.000000e+00, ptr %14, align 4, !tbaa !13
  %36 = load ptr, ptr %5, align 8, !tbaa !62
  %37 = getelementptr inbounds nuw %struct.Data, ptr %36, i32 0, i32 1
  invoke void @_ZN2cv3MatC1ERKS0_(ptr noundef nonnull align 8 dereferenceable(96) %15, ptr noundef nonnull align 8 dereferenceable(96) %37)
          to label %38 unwind label %81

38:                                               ; preds = %35
  %39 = load ptr, ptr %5, align 8, !tbaa !62
  %40 = getelementptr inbounds nuw %struct.Data, ptr %39, i32 0, i32 2
  invoke void @_ZN2cv3MatC1ERKS0_(ptr noundef nonnull align 8 dereferenceable(96) %16, ptr noundef nonnull align 8 dereferenceable(96) %40)
          to label %41 unwind label %85

41:                                               ; preds = %38
  %42 = invoke noundef zeroext i1 @_Z7doTrainN2cv3MatES0_RS0_Rf(ptr noundef %15, ptr noundef %16, ptr noundef nonnull align 8 dereferenceable(96) %13, ptr noundef nonnull align 4 dereferenceable(4) %14)
          to label %43 unwind label %89

43:                                               ; preds = %41
  call void @_ZN2cv3MatD1Ev(ptr noundef nonnull align 8 dereferenceable(96) %16) #3
  call void @_ZN2cv3MatD1Ev(ptr noundef nonnull align 8 dereferenceable(96) %15) #3
  br i1 %42, label %44, label %103

44:                                               ; preds = %43
  call void @llvm.lifetime.start.p0(i64 16, ptr %17) #3
  %45 = getelementptr inbounds [2 x %"class.cv::Point_"], ptr %17, i32 0, i32 0
  %46 = getelementptr inbounds %"class.cv::Point_", ptr %45, i64 2
  br label %47

47:                                               ; preds = %49, %44
  %48 = phi ptr [ %45, %44 ], [ %50, %49 ]
  invoke void @_ZN2cv6Point_IiEC2Ev(ptr noundef nonnull align 4 dereferenceable(8) %48)
          to label %49 unwind label %94

49:                                               ; preds = %47
  %50 = getelementptr inbounds %"class.cv::Point_", ptr %48, i64 1
  %51 = icmp eq ptr %50, %46
  br i1 %51, label %52, label %47

52:                                               ; preds = %49
  %53 = load float, ptr %14, align 4, !tbaa !13
  %54 = getelementptr inbounds [2 x %"class.cv::Point_"], ptr %17, i64 0, i64 0
  %55 = load ptr, ptr %5, align 8, !tbaa !62
  %56 = getelementptr inbounds nuw %struct.Data, ptr %55, i32 0, i32 0
  %57 = getelementptr inbounds nuw %"class.cv::Mat", ptr %56, i32 0, i32 3
  %58 = load i32, ptr %57, align 4, !tbaa !75
  %59 = load ptr, ptr %5, align 8, !tbaa !62
  %60 = getelementptr inbounds nuw %struct.Data, ptr %59, i32 0, i32 0
  %61 = getelementptr inbounds nuw %"class.cv::Mat", ptr %60, i32 0, i32 2
  %62 = load i32, ptr %61, align 8, !tbaa !76
  %63 = invoke noundef zeroext i1 @_Z17findPointsForLineRKN2cv3MatEfPNS_6Point_IiEEii(ptr noundef nonnull align 8 dereferenceable(96) %13, float noundef %53, ptr noundef %54, i32 noundef %58, i32 noundef %62)
          to label %64 unwind label %94

64:                                               ; preds = %52
  %65 = load ptr, ptr %5, align 8, !tbaa !62
  invoke void @_ZN4DataC2ERKS_(ptr noundef nonnull align 8 dereferenceable(288) %18, ptr noundef nonnull align 8 dereferenceable(288) %65)
          to label %66 unwind label %94

66:                                               ; preds = %64
  %67 = getelementptr inbounds [2 x %"class.cv::Point_"], ptr %17, i64 0, i64 0
  invoke void @_Z6redraw4DataPKN2cv6Point_IiEE(ptr noundef %18, ptr noundef %67)
          to label %68 unwind label %98

68:                                               ; preds = %66
  call void @_ZN4DataD2Ev(ptr noundef nonnull align 8 dereferenceable(288) %18) #3
  call void @llvm.lifetime.end.p0(i64 16, ptr %17) #3
  br label %103

69:                                               ; preds = %26, %22, %4
  %70 = landingpad { ptr, i32 }
          cleanup
  %71 = extractvalue { ptr, i32 } %70, 0
  store ptr %71, ptr %10, align 8
  %72 = extractvalue { ptr, i32 } %70, 1
  store i32 %72, ptr %11, align 4
  br label %106

73:                                               ; preds = %29
  %74 = landingpad { ptr, i32 }
          cleanup
  %75 = extractvalue { ptr, i32 } %74, 0
  store ptr %75, ptr %10, align 8
  %76 = extractvalue { ptr, i32 } %74, 1
  store i32 %76, ptr %11, align 4
  call void @llvm.lifetime.end.p0(i64 4, ptr %12) #3
  br label %106

77:                                               ; preds = %34
  %78 = landingpad { ptr, i32 }
          cleanup
  %79 = extractvalue { ptr, i32 } %78, 0
  store ptr %79, ptr %10, align 8
  %80 = extractvalue { ptr, i32 } %78, 1
  store i32 %80, ptr %11, align 4
  br label %105

81:                                               ; preds = %35
  %82 = landingpad { ptr, i32 }
          cleanup
  %83 = extractvalue { ptr, i32 } %82, 0
  store ptr %83, ptr %10, align 8
  %84 = extractvalue { ptr, i32 } %82, 1
  store i32 %84, ptr %11, align 4
  br label %104

85:                                               ; preds = %38
  %86 = landingpad { ptr, i32 }
          cleanup
  %87 = extractvalue { ptr, i32 } %86, 0
  store ptr %87, ptr %10, align 8
  %88 = extractvalue { ptr, i32 } %86, 1
  store i32 %88, ptr %11, align 4
  br label %93

89:                                               ; preds = %41
  %90 = landingpad { ptr, i32 }
          cleanup
  %91 = extractvalue { ptr, i32 } %90, 0
  store ptr %91, ptr %10, align 8
  %92 = extractvalue { ptr, i32 } %90, 1
  store i32 %92, ptr %11, align 4
  call void @_ZN2cv3MatD1Ev(ptr noundef nonnull align 8 dereferenceable(96) %16) #3
  br label %93

93:                                               ; preds = %89, %85
  call void @_ZN2cv3MatD1Ev(ptr noundef nonnull align 8 dereferenceable(96) %15) #3
  br label %104

94:                                               ; preds = %64, %52, %47
  %95 = landingpad { ptr, i32 }
          cleanup
  %96 = extractvalue { ptr, i32 } %95, 0
  store ptr %96, ptr %10, align 8
  %97 = extractvalue { ptr, i32 } %95, 1
  store i32 %97, ptr %11, align 4
  br label %102

98:                                               ; preds = %66
  %99 = landingpad { ptr, i32 }
          cleanup
  %100 = extractvalue { ptr, i32 } %99, 0
  store ptr %100, ptr %10, align 8
  %101 = extractvalue { ptr, i32 } %99, 1
  store i32 %101, ptr %11, align 4
  call void @_ZN4DataD2Ev(ptr noundef nonnull align 8 dereferenceable(288) %18) #3
  br label %102

102:                                              ; preds = %98, %94
  call void @llvm.lifetime.end.p0(i64 16, ptr %17) #3
  br label %104

103:                                              ; preds = %68, %43
  call void @llvm.lifetime.end.p0(i64 4, ptr %14) #3
  call void @_ZN2cv3MatD1Ev(ptr noundef nonnull align 8 dereferenceable(96) %13) #3
  call void @llvm.lifetime.end.p0(i64 96, ptr %13) #3
  call void @_ZN2cv3MatD1Ev(ptr noundef nonnull align 8 dereferenceable(96) %9) #3
  call void @llvm.lifetime.end.p0(i64 96, ptr %9) #3
  ret void

104:                                              ; preds = %102, %93, %81
  call void @llvm.lifetime.end.p0(i64 4, ptr %14) #3
  call void @_ZN2cv3MatD1Ev(ptr noundef nonnull align 8 dereferenceable(96) %13) #3
  br label %105

105:                                              ; preds = %104, %77
  call void @llvm.lifetime.end.p0(i64 96, ptr %13) #3
  br label %106

106:                                              ; preds = %105, %73, %69
  call void @_ZN2cv3MatD1Ev(ptr noundef nonnull align 8 dereferenceable(96) %9) #3
  call void @llvm.lifetime.end.p0(i64 96, ptr %9) #3
  br label %107

107:                                              ; preds = %106
  %108 = load ptr, ptr %10, align 8
  %109 = load i32, ptr %11, align 4
  %110 = insertvalue { ptr, i32 } poison, ptr %108, 0
  %111 = insertvalue { ptr, i32 } %110, i32 %109, 1
  resume { ptr, i32 } %111
}