; Function Attrs: mustprogress uwtable
define hidden void @_Z24addPointRetrainAndRedrawR4Dataiii(ptr noundef nonnull align 8 dereferenceable(288) %0, i32 noundef %1, i32 noundef %2, i32 noundef %3) local_unnamed_addr #3 personality ptr @__gxx_personality_v0 {
  %5 = alloca %"class.cv::Mat", align 8
  %6 = alloca float, align 4
  %7 = alloca %"class.cv::Mat", align 8
  %8 = alloca float, align 4
  %9 = alloca %"class.cv::Mat", align 8
  %10 = alloca %"class.cv::Mat", align 8
  %11 = alloca [2 x %"class.cv::Point_"], align 16
  %12 = alloca %struct.Data, align 8
  call void @llvm.lifetime.start.p0(i64 96, ptr nonnull %5) #19
  call void @_ZN2cv3MatC1Eiii(ptr noundef nonnull align 8 dereferenceable(96) %5, i32 noundef 1, i32 noundef 2, i32 noundef 5)
  %13 = sitofp i32 %1 to float
  %14 = getelementptr inbounds nuw i8, ptr %5, i64 16
  %15 = load ptr, ptr %14, align 8, !tbaa !68
  store float %13, ptr %15, align 4, !tbaa !21
  %16 = sitofp i32 %2 to float
  %17 = getelementptr inbounds nuw i8, ptr %15, i64 4
  store float %16, ptr %17, align 4, !tbaa !21
  %18 = getelementptr inbounds nuw i8, ptr %0, i64 96
  invoke void @_ZN2cv3Mat9push_backERKS0_(ptr noundef nonnull align 8 dereferenceable(96) %18, ptr noundef nonnull align 8 dereferenceable(96) %5)
          to label %19 unwind label %45

19:                                               ; preds = %4
  %20 = getelementptr inbounds nuw i8, ptr %0, i64 192
  call void @llvm.lifetime.start.p0(i64 4, ptr nonnull %6) #19
  %21 = sitofp i32 %3 to float
  store float %21, ptr %6, align 4, !tbaa !21
  invoke void @_ZN2cv3Mat9push_backIfEEvRKT_(ptr noundef nonnull align 8 dereferenceable(96) %20, ptr noundef nonnull align 4 dereferenceable(4) %6)
          to label %22 unwind label %47

22:                                               ; preds = %19
  call void @llvm.lifetime.end.p0(i64 4, ptr nonnull %6) #19
  call void @llvm.lifetime.start.p0(i64 96, ptr nonnull %7) #19
  invoke void @_ZN2cv3MatC1Eiii(ptr noundef nonnull align 8 dereferenceable(96) %7, i32 noundef 1, i32 noundef 2, i32 noundef 5)
          to label %23 unwind label %49

23:                                               ; preds = %22
  call void @llvm.lifetime.start.p0(i64 4, ptr nonnull %8) #19
  store float 0.000000e+00, ptr %8, align 4, !tbaa !21
  invoke void @_ZN2cv3MatC1ERKS0_(ptr noundef nonnull align 8 dereferenceable(96) %9, ptr noundef nonnull align 8 dereferenceable(96) %18)
          to label %24 unwind label %51

24:                                               ; preds = %23
  invoke void @_ZN2cv3MatC1ERKS0_(ptr noundef nonnull align 8 dereferenceable(96) %10, ptr noundef nonnull align 8 dereferenceable(96) %20)
          to label %25 unwind label %53

25:                                               ; preds = %24
  %26 = invoke noundef zeroext i1 @_Z7doTrainN2cv3MatES0_RS0_Rf(ptr noundef nonnull %9, ptr noundef nonnull %10, ptr noundef nonnull align 8 dereferenceable(96) %7, ptr noundef nonnull align 4 dereferenceable(4) %8)
          to label %27 unwind label %55

27:                                               ; preds = %25
  call void @_ZN2cv3MatD1Ev(ptr noundef nonnull align 8 dereferenceable(96) %10) #19
  call void @_ZN2cv3MatD1Ev(ptr noundef nonnull align 8 dereferenceable(96) %9) #19
  br i1 %26, label %28, label %62

28:                                               ; preds = %27
  call void @llvm.lifetime.start.p0(i64 16, ptr nonnull %11) #19
  call void @llvm.memset.p0.i64(ptr noundef nonnull align 16 dereferenceable(16) %11, i8 0, i64 16, i1 false), !tbaa !28
  %29 = load float, ptr %8, align 4, !tbaa !21
  %30 = getelementptr inbounds nuw i8, ptr %0, i64 12
  %31 = load i32, ptr %30, align 4, !tbaa !82
  %32 = getelementptr inbounds nuw i8, ptr %0, i64 8
  %33 = load i32, ptr %32, align 8, !tbaa !83
  %34 = invoke noundef zeroext i1 @_Z17findPointsForLineRKN2cv3MatEfPNS_6Point_IiEEii(ptr noundef nonnull align 8 dereferenceable(96) %7, float noundef %29, ptr noundef nonnull %11, i32 noundef %31, i32 noundef %33)
          to label %35 unwind label %58

35:                                               ; preds = %28
  invoke void @_ZN2cv3MatC1ERKS0_(ptr noundef nonnull align 8 dereferenceable(288) %12, ptr noundef nonnull align 8 dereferenceable(288) %0)
          to label %.noexc unwind label %58

.noexc:                                           ; preds = %35
  %36 = getelementptr inbounds nuw i8, ptr %12, i64 96
  invoke void @_ZN2cv3MatC1ERKS0_(ptr noundef nonnull align 8 dereferenceable(96) %36, ptr noundef nonnull align 8 dereferenceable(96) %18)
          to label %37 unwind label %39

37:                                               ; preds = %.noexc
  %38 = getelementptr inbounds nuw i8, ptr %12, i64 192
  invoke void @_ZN2cv3MatC1ERKS0_(ptr noundef nonnull align 8 dereferenceable(96) %38, ptr noundef nonnull align 8 dereferenceable(96) %20)
          to label %_ZN4DataC2ERKS_.exit unwind label %41

39:                                               ; preds = %.noexc
  %40 = landingpad { ptr, i32 }
          cleanup
  br label %43

41:                                               ; preds = %37
  %42 = landingpad { ptr, i32 }
          cleanup
  call void @_ZN2cv3MatD1Ev(ptr noundef nonnull align 8 dereferenceable(96) %36) #19
  br label %43

43:                                               ; preds = %41, %39
  %.pn.i = phi { ptr, i32 } [ %42, %41 ], [ %40, %39 ]
  call void @_ZN2cv3MatD1Ev(ptr noundef nonnull align 8 dereferenceable(288) %12) #19
  br label %.body

_ZN4DataC2ERKS_.exit:                             ; preds = %37
  invoke void @_Z6redraw4DataPKN2cv6Point_IiEE(ptr noundef nonnull %12, ptr noundef nonnull %11)
          to label %44 unwind label %60

44:                                               ; preds = %_ZN4DataC2ERKS_.exit
  call void @_ZN2cv3MatD1Ev(ptr noundef nonnull align 8 dereferenceable(96) %38) #19
  call void @_ZN2cv3MatD1Ev(ptr noundef nonnull align 8 dereferenceable(96) %36) #19
  call void @_ZN2cv3MatD1Ev(ptr noundef nonnull align 8 dereferenceable(288) %12) #19
  call void @llvm.lifetime.end.p0(i64 16, ptr nonnull %11) #19
  br label %62

45:                                               ; preds = %4
  %46 = landingpad { ptr, i32 }
          cleanup
  br label %65

47:                                               ; preds = %19
  %48 = landingpad { ptr, i32 }
          cleanup
  call void @llvm.lifetime.end.p0(i64 4, ptr nonnull %6) #19
  br label %65

49:                                               ; preds = %22
  %50 = landingpad { ptr, i32 }
          cleanup
  br label %64

51:                                               ; preds = %23
  %52 = landingpad { ptr, i32 }
          cleanup
  br label %63

53:                                               ; preds = %24
  %54 = landingpad { ptr, i32 }
          cleanup
  br label %57

55:                                               ; preds = %25
  %56 = landingpad { ptr, i32 }
          cleanup
  call void @_ZN2cv3MatD1Ev(ptr noundef nonnull align 8 dereferenceable(96) %10) #19
  br label %57

57:                                               ; preds = %55, %53
  %.pn = phi { ptr, i32 } [ %56, %55 ], [ %54, %53 ]
  call void @_ZN2cv3MatD1Ev(ptr noundef nonnull align 8 dereferenceable(96) %9) #19
  br label %63

58:                                               ; preds = %35, %28
  %59 = landingpad { ptr, i32 }
          cleanup
  br label %.body

60:                                               ; preds = %_ZN4DataC2ERKS_.exit
  %61 = landingpad { ptr, i32 }
          cleanup
  call void @_ZN4DataD2Ev(ptr noundef nonnull align 8 dereferenceable(288) %12) #19
  br label %.body

.body:                                            ; preds = %58, %43, %60
  %.pn18 = phi { ptr, i32 } [ %61, %60 ], [ %59, %58 ], [ %.pn.i, %43 ]
  call void @llvm.lifetime.end.p0(i64 16, ptr nonnull %11) #19
  br label %63

62:                                               ; preds = %44, %27
  call void @llvm.lifetime.end.p0(i64 4, ptr nonnull %8) #19
  call void @_ZN2cv3MatD1Ev(ptr noundef nonnull align 8 dereferenceable(96) %7) #19
  call void @llvm.lifetime.end.p0(i64 96, ptr nonnull %7) #19
  call void @_ZN2cv3MatD1Ev(ptr noundef nonnull align 8 dereferenceable(96) %5) #19
  call void @llvm.lifetime.end.p0(i64 96, ptr nonnull %5) #19
  ret void

63:                                               ; preds = %.body, %57, %51
  %.pn18.pn = phi { ptr, i32 } [ %.pn18, %.body ], [ %.pn, %57 ], [ %52, %51 ]
  call void @llvm.lifetime.end.p0(i64 4, ptr nonnull %8) #19
  call void @_ZN2cv3MatD1Ev(ptr noundef nonnull align 8 dereferenceable(96) %7) #19
  br label %64

64:                                               ; preds = %63, %49
  %.pn18.pn.pn = phi { ptr, i32 } [ %.pn18.pn, %63 ], [ %50, %49 ]
  call void @llvm.lifetime.end.p0(i64 96, ptr nonnull %7) #19
  br label %65

65:                                               ; preds = %64, %47, %45
  %.pn18.pn.pn.pn = phi { ptr, i32 } [ %.pn18.pn.pn, %64 ], [ %48, %47 ], [ %46, %45 ]
  call void @_ZN2cv3MatD1Ev(ptr noundef nonnull align 8 dereferenceable(96) %5) #19
  call void @llvm.lifetime.end.p0(i64 96, ptr nonnull %5) #19
  resume { ptr, i32 } %.pn18.pn.pn.pn
}